; Function Attrs: nounwind uwtable
define void @wolfSSL_free(ptr noundef %0) local_unnamed_addr #0 {
  %.not = icmp eq ptr %0, null
  br i1 %.not, label %6, label %2

2:                                                ; preds = %1
  %3 = load ptr, ptr %0, align 16, !tbaa !96
  %4 = getelementptr inbounds nuw i8, ptr %3, i64 160
  %5 = load ptr, ptr %4, align 8, !tbaa !116
  tail call void @FreeSSL(ptr noundef nonnull %0, ptr noundef %5) #22
  br label %6

6:                                                ; preds = %1, %2
  ret void
}